target datalayout = "e-m:e-p270:32:32-p271:32:32-p272:64:64-i64:64-i128:128-f80:128-n8:16:32:64-S128"
target triple = "x86_64-pc-linux-gnu"

; Function Attrs: nounwind uwtable
define internal void @copy_double(ptr noundef %0, ptr noundef %1, ptr noundef %2, i32 noundef %3, i32 noundef %4) #0 {
  %6 = alloca ptr, align 8
  %7 = alloca ptr, align 8
  %8 = alloca ptr, align 8
  %9 = alloca i32, align 4
  %10 = alloca i32, align 4
  %11 = alloca i32, align 4
  %12 = alloca double, align 8
  store ptr %0, ptr %6, align 8, !tbaa !9
  store ptr %1, ptr %7, align 8, !tbaa !9
  store ptr %2, ptr %8, align 8, !tbaa !9
  store i32 %3, ptr %9, align 4, !tbaa !11
  store i32 %4, ptr %10, align 4, !tbaa !11
  call void @llvm.lifetime.start.p0(i64 4, ptr %11) #9
  call void @llvm.lifetime.start.p0(i64 8, ptr %12) #9
  %13 = load ptr, ptr %8, align 8, !tbaa !9
  %14 = load i32, ptr %9, align 4, !tbaa !11
  %15 = sext i32 %14 to i64
  %16 = getelementptr inbounds double, ptr %13, i64 %15
  %17 = load double, ptr %16, align 8, !tbaa !29
  store double %17, ptr %12, align 8, !tbaa !29
  store i32 0, ptr %11, align 4, !tbaa !11
  br label %18

18:                                               ; preds = %34, %5
  %19 = load i32, ptr %11, align 4, !tbaa !11
  %20 = load i32, ptr %10, align 4, !tbaa !11
  %21 = icmp slt i32 %19, %20
  br i1 %21, label %22, label %37

22:                                               ; preds = %18
  %23 = load double, ptr %12, align 8, !tbaa !29
  %24 = load ptr, ptr %7, align 8, !tbaa !9
  %25 = load i32, ptr %11, align 4, !tbaa !11
  %26 = sext i32 %25 to i64
  %27 = getelementptr inbounds double, ptr %24, i64 %26
  %28 = load double, ptr %27, align 8, !tbaa !29
  %29 = fmul nsz double %23, %28
  %30 = load ptr, ptr %6, align 8, !tbaa !9
  %31 = load i32, ptr %11, align 4, !tbaa !11
  %32 = sext i32 %31 to i64
  %33 = getelementptr inbounds double, ptr %30, i64 %32
  store double %29, ptr %33, align 8, !tbaa !29
  br label %34

34:                                               ; preds = %22
  %35 = load i32, ptr %11, align 4, !tbaa !11
  %36 = add nsw i32 %35, 1
  store i32 %36, ptr %11, align 4, !tbaa !11
  br label %18, !llvm.loop !97

37:                                               ; preds = %18
  call void @llvm.lifetime.end.p0(i64 8, ptr %12) #9
  call void @llvm.lifetime.end.p0(i64 4, ptr %11) #9
  ret void
}