; Function Attrs: nofree norecurse nosync nounwind memory(argmem: readwrite) uwtable
define internal void @copy_double(ptr noundef writeonly captures(none) %0, ptr noundef readonly captures(none) %1, ptr noundef readonly captures(none) %2, i32 noundef %3, i32 noundef %4) #0 {
  %6 = sext i32 %3 to i64
  %7 = getelementptr inbounds double, ptr %2, i64 %6
  %8 = load double, ptr %7, align 8, !tbaa !24
  %9 = icmp sgt i32 %4, 0
  br i1 %9, label %.lr.ph.preheader, label %._crit_edge

.lr.ph.preheader:                                 ; preds = %5
  %wide.trip.count = zext nneg i32 %4 to i64
  br label %.lr.ph

.lr.ph:                                           ; preds = %.lr.ph.preheader, %.lr.ph
  %indvars.iv = phi i64 [ 0, %.lr.ph.preheader ], [ %indvars.iv.next, %.lr.ph ]
  %10 = getelementptr inbounds nuw double, ptr %1, i64 %indvars.iv
  %11 = load double, ptr %10, align 8, !tbaa !24
  %12 = fmul nsz double %8, %11
  %13 = getelementptr inbounds nuw double, ptr %0, i64 %indvars.iv
  store double %12, ptr %13, align 8, !tbaa !24
  %indvars.iv.next = add nuw nsw i64 %indvars.iv, 1
  %exitcond.not = icmp eq i64 %indvars.iv.next, %wide.trip.count
  br i1 %exitcond.not, label %._crit_edge, label %.lr.ph, !llvm.loop !84

._crit_edge:                                      ; preds = %.lr.ph, %5
  ret void
}